(dp0
S'sdfsd'
p1
(lp2
S'./test/help.txt'
p3
asS'warum'
p4
(lp5
S'./test/help.txt'
p6
asS'sdfhs'
p7
(lp8
S'./test/help.txt'
p9
asS'dsfjhsd'
p10
(lp11
S'./test/help.txt'
p12
asS'sie'
p13
(lp14
S'./test/help.txt'
p15
asS'sd'
p16
(lp17
S'./test/help.txt'
p18
asS'test'
p19
(lp20
S'./test/help.txt'
p21
asS'du'
p22
(lp23
S'./test/help.txt'
p24
asS'er'
p25
(lp26
S'./test/help.txt'
p27
as.